; Function Attrs: nounwind uwtable
define void @av_channel_name_bprint(ptr noundef %0, i32 noundef %1) local_unnamed_addr #0 {
  %3 = and i32 %1, -1024
  %or.cond = icmp eq i32 %3, 1024
  br i1 %or.cond, label %4, label %6

4:                                                ; preds = %2
  %5 = add nsw i32 %1, -1024
  tail call void (ptr, ptr, ...) @av_bprintf(ptr noundef %0, ptr noundef nonnull @.str, i32 noundef %5) #16
  br label %18

6:                                                ; preds = %2
  %7 = icmp ult i32 %1, 63
  br i1 %7, label %8, label %13

8:                                                ; preds = %6
  %9 = zext nneg i32 %1 to i64
  %10 = getelementptr inbounds nuw [63 x %struct.channel_name], ptr @channel_names, i64 0, i64 %9
  %11 = load ptr, ptr %10, align 16, !tbaa !4
  %.not = icmp eq ptr %11, null
  br i1 %.not, label %13, label %12

12:                                               ; preds = %8
  tail call void (ptr, ptr, ...) @av_bprintf(ptr noundef %0, ptr noundef nonnull @.str.1, ptr noundef nonnull %11) #16
  br label %18

13:                                               ; preds = %8, %6
  switch i32 %1, label %17 [
    i32 -1, label %14
    i32 768, label %15
    i32 512, label %16
  ]

14:                                               ; preds = %13
  tail call void (ptr, ptr, ...) @av_bprintf(ptr noundef %0, ptr noundef nonnull @.str.2) #16
  br label %18

15:                                               ; preds = %13
  tail call void (ptr, ptr, ...) @av_bprintf(ptr noundef %0, ptr noundef nonnull @.str.3) #16
  br label %18

16:                                               ; preds = %13
  tail call void (ptr, ptr, ...) @av_bprintf(ptr noundef %0, ptr noundef nonnull @.str.4) #16
  br label %18

17:                                               ; preds = %13
  tail call void (ptr, ptr, ...) @av_bprintf(ptr noundef %0, ptr noundef nonnull @.str.5, i32 noundef %1) #16
  br label %18

18:                                               ; preds = %12, %15, %17, %16, %14, %4
  ret void
}